; Function Attrs: mustprogress nounwind uwtable
define dso_local noundef ptr @_ZNK4llvm16TargetSchedModel17resolveSchedClassEPKNS_12MachineInstrE(ptr noundef nonnull align 8 dereferenceable(280) %0, ptr noundef %1) local_unnamed_addr #0 align 2 {
  %3 = getelementptr inbounds nuw i8, ptr %1, i64 16
  %4 = load ptr, ptr %3, align 8
  %5 = getelementptr inbounds nuw i8, ptr %4, i64 6
  %6 = load i16, ptr %5, align 2
  %7 = getelementptr inbounds nuw i8, ptr %0, i64 40
  %8 = load ptr, ptr %7, align 8
  %9 = zext i16 %6 to i64
  %10 = getelementptr inbounds %"struct.llvm::MCSchedClassDesc", ptr %8, i64 %9
  %11 = load i16, ptr %10, align 2
  %12 = and i16 %11, 8191
  %cond = icmp eq i16 %12, 8190
  br i1 %cond, label %.lr.ph, label %.loopexit

.lr.ph:                                           ; preds = %2
  %13 = zext i16 %6 to i32
  %14 = getelementptr inbounds nuw i8, ptr %0, i64 176
  br label %15

15:                                               ; preds = %.lr.ph, %15
  %.01012 = phi i32 [ %13, %.lr.ph ], [ %20, %15 ]
  %16 = load ptr, ptr %14, align 8
  %17 = load ptr, ptr %16, align 8
  %18 = getelementptr inbounds i8, ptr %17, i64 224
  %19 = load ptr, ptr %18, align 8
  %20 = tail call noundef i32 %19(ptr noundef nonnull align 8 dereferenceable(288) %16, i32 noundef %.01012, ptr noundef nonnull %1, ptr noundef nonnull %0) #11
  %21 = load ptr, ptr %7, align 8
  %22 = zext i32 %20 to i64
  %23 = getelementptr inbounds %"struct.llvm::MCSchedClassDesc", ptr %21, i64 %22
  %24 = load i16, ptr %23, align 2
  %25 = and i16 %24, 8191
  %26 = icmp eq i16 %25, 8190
  br i1 %26, label %15, label %.loopexit, !llvm.loop !8

.loopexit:                                        ; preds = %15, %2
  %.011 = phi ptr [ %10, %2 ], [ %23, %15 ]
  ret ptr %.011
}